target datalayout = "e-m:e-p270:32:32-p271:32:32-p272:64:64-i64:64-i128:128-f80:128-n8:16:32:64-S128"
target triple = "x86_64-unknown-linux-gnu"

%"class.icu_75::MaybeStackArray" = type <{ ptr, i32, i8, [40 x i8], [3 x i8] }>
%"class.icu_75::StringPiece" = type <{ ptr, i32, [4 x i8] }>
%"class.icu_75::CharString" = type { %"class.icu_75::MaybeStackArray", i32, [4 x i8] }
%"class.icu_75::CharStringByteSink" = type { %"class.icu_75::ByteSink", ptr }
%"class.icu_75::ByteSink" = type { ptr }

@_ZN6icu_7515MaybeStackArrayIcLi40EEC1Ev = weak_odr unnamed_addr alias void (ptr), ptr @_ZN6icu_7515MaybeStackArrayIcLi40EEC2Ev
@_ZN6icu_7515MaybeStackArrayIcLi40EED1Ev = weak_odr unnamed_addr alias void (ptr), ptr @_ZN6icu_7515MaybeStackArrayIcLi40EED2Ev

; Function Attrs: mustprogress nounwind uwtable
define weak_odr noundef nonnull align 1 dereferenceable(1) ptr @_ZN6icu_7515MaybeStackArrayIcLi40EEixEl(ptr noundef nonnull align 8 dereferenceable(53) %this, i64 noundef %i) #0 comdat align 2 {
entry:
  %this.addr = alloca ptr, align 8
  %i.addr = alloca i64, align 8
  store ptr %this, ptr %this.addr, align 8
  store i64 %i, ptr %i.addr, align 8
  %this1 = load ptr, ptr %this.addr, align 8
  %ptr = getelementptr inbounds %"class.icu_75::MaybeStackArray", ptr %this1, i32 0, i32 0
  %0 = load ptr, ptr %ptr, align 8
  %1 = load i64, ptr %i.addr, align 8
  %arrayidx = getelementptr inbounds i8, ptr %0, i64 %1
  ret ptr %arrayidx
}

; Function Attrs: mustprogress nounwind uwtable
define linkonce_odr void @_ZN6icu_7510CharStringD2Ev(ptr noundef nonnull align 8 dereferenceable(60) %this) unnamed_addr #0 comdat align 2 {
entry:
  %this.addr = alloca ptr, align 8
  store ptr %this, ptr %this.addr, align 8
  %this1 = load ptr, ptr %this.addr, align 8
  %buffer = getelementptr inbounds %"class.icu_75::CharString", ptr %this1, i32 0, i32 0
  call void @_ZN6icu_7515MaybeStackArrayIcLi40EED1Ev(ptr noundef nonnull align 8 dereferenceable(53) %buffer) #8
  ret void
}

; Function Attrs: mustprogress nounwind uwtable
define linkonce_odr noundef signext i8 @_ZNK6icu_7510CharString7isEmptyEv(ptr noundef nonnull align 8 dereferenceable(60) %this) #0 comdat align 2 {
entry:
  %this.addr = alloca ptr, align 8
  store ptr %this, ptr %this.addr, align 8
  %this1 = load ptr, ptr %this.addr, align 8
  %len = getelementptr inbounds %"class.icu_75::CharString", ptr %this1, i32 0, i32 1
  %0 = load i32, ptr %len, align 8
  %cmp = icmp eq i32 %0, 0
  %conv = zext i1 %cmp to i8
  ret i8 %conv
}

; Function Attrs: mustprogress nounwind uwtable
define internal noundef signext i8 @_ZL9U_SUCCESS10UErrorCode(i32 noundef %code) #0 {
entry:
  %code.addr = alloca i32, align 4
  store i32 %code, ptr %code.addr, align 4
  %0 = load i32, ptr %code.addr, align 4
  %cmp = icmp sle i32 %0, 0
  %conv = zext i1 %cmp to i8
  ret i8 %conv
}

; Function Attrs: mustprogress nounwind uwtable
define internal noundef signext i8 @_ZL9U_FAILURE10UErrorCode(i32 noundef %code) #0 {
entry:
  %code.addr = alloca i32, align 4
  store i32 %code, ptr %code.addr, align 4
  %0 = load i32, ptr %code.addr, align 4
  %cmp = icmp sgt i32 %0, 0
  %conv = zext i1 %cmp to i8
  ret i8 %conv
}

; Function Attrs: mustprogress uwtable
define linkonce_odr void @_ZN6icu_7510CharStringC2Ev(ptr noundef nonnull align 8 dereferenceable(60) %this) unnamed_addr #1 comdat align 2 {
entry:
  %this.addr = alloca ptr, align 8
  store ptr %this, ptr %this.addr, align 8
  %this1 = load ptr, ptr %this.addr, align 8
  %buffer = getelementptr inbounds %"class.icu_75::CharString", ptr %this1, i32 0, i32 0
  call void @_ZN6icu_7515MaybeStackArrayIcLi40EEC1Ev(ptr noundef nonnull align 8 dereferenceable(53) %buffer)
  %len = getelementptr inbounds %"class.icu_75::CharString", ptr %this1, i32 0, i32 1
  store i32 0, ptr %len, align 8
  %buffer2 = getelementptr inbounds %"class.icu_75::CharString", ptr %this1, i32 0, i32 0
  %call = call noundef nonnull align 1 dereferenceable(1) ptr @_ZN6icu_7515MaybeStackArrayIcLi40EEixEl(ptr noundef nonnull align 8 dereferenceable(53) %buffer2, i64 noundef 0)
  store i8 0, ptr %call, align 1
  ret void
}

; Function Attrs: mustprogress uwtable
define void @_ZN6icu_755units15getKeyWordValueERKNS_6LocaleENS_11StringPieceER10UErrorCode(ptr noalias sret(%"class.icu_75::CharString") align 8 %agg.result, ptr noundef nonnull align 8 dereferenceable(217) %locale, ptr %kw.coerce0, i32 %kw.coerce1, ptr noundef nonnull align 4 dereferenceable(4) %status) #1 personality ptr @__gxx_personality_v0 {
entry:
  %result.ptr = alloca ptr, align 8
  %kw = alloca %"class.icu_75::StringPiece", align 8
  %locale.addr = alloca ptr, align 8
  %status.addr = alloca ptr, align 8
  %nrvo = alloca i1, align 1
  %exn.slot = alloca ptr, align 8
  %ehselector.slot = alloca i32, align 4
  %cleanup.dest.slot = alloca i32, align 4
  %sink = alloca %"class.icu_75::CharStringByteSink", align 8
  %agg.tmp = alloca %"class.icu_75::StringPiece", align 8
  store ptr %agg.result, ptr %result.ptr, align 8
  %0 = getelementptr inbounds { ptr, i32 }, ptr %kw, i32 0, i32 0
  store ptr %kw.coerce0, ptr %0, align 8
  %1 = getelementptr inbounds { ptr, i32 }, ptr %kw, i32 0, i32 1
  store i32 %kw.coerce1, ptr %1, align 8
  store ptr %locale, ptr %locale.addr, align 8
  store ptr %status, ptr %status.addr, align 8
  store i1 false, ptr %nrvo, align 1
  call void @_ZN6icu_7510CharStringC2Ev(ptr noundef nonnull align 8 dereferenceable(60) %agg.result)
  %2 = load ptr, ptr %status.addr, align 8
  %3 = load i32, ptr %2, align 4
  %call = invoke noundef signext i8 @_ZL9U_FAILURE10UErrorCode(i32 noundef %3)
          to label %invoke.cont unwind label %lpad

invoke.cont:                                      ; preds = %entry
  %tobool = icmp ne i8 %call, 0
  br i1 %tobool, label %if.then, label %if.end

if.then:                                          ; preds = %invoke.cont
  store i1 true, ptr %nrvo, align 1
  store i32 1, ptr %cleanup.dest.slot, align 4
  br label %cleanup

lpad:                                             ; preds = %land.lhs.true, %invoke.cont3, %if.end, %entry
  %4 = landingpad { ptr, i32 }
          cleanup
  %5 = extractvalue { ptr, i32 } %4, 0
  store ptr %5, ptr %exn.slot, align 8
  %6 = extractvalue { ptr, i32 } %4, 1
  store i32 %6, ptr %ehselector.slot, align 4
  br label %ehcleanup

if.end:                                           ; preds = %invoke.cont
  invoke void @_ZN6icu_7518CharStringByteSinkC1EPNS_10CharStringE(ptr noundef nonnull align 8 dereferenceable(16) %sink, ptr noundef %agg.result)
          to label %invoke.cont1 unwind label %lpad

invoke.cont1:                                     ; preds = %if.end
  %7 = load ptr, ptr %locale.addr, align 8
  call void @llvm.memcpy.p0.p0.i64(ptr align 8 %agg.tmp, ptr align 8 %kw, i64 16, i1 false)
  %8 = load ptr, ptr %status.addr, align 8
  %9 = getelementptr inbounds { ptr, i32 }, ptr %agg.tmp, i32 0, i32 0
  %10 = load ptr, ptr %9, align 8
  %11 = getelementptr inbounds { ptr, i32 }, ptr %agg.tmp, i32 0, i32 1
  %12 = load i32, ptr %11, align 8
  invoke void @_ZNK6icu_756Locale15getKeywordValueENS_11StringPieceERNS_8ByteSinkER10UErrorCode(ptr noundef nonnull align 8 dereferenceable(217) %7, ptr %10, i32 %12, ptr noundef nonnull align 8 dereferenceable(8) %sink, ptr noundef nonnull align 4 dereferenceable(4) %8)
          to label %invoke.cont3 unwind label %lpad2

invoke.cont3:                                     ; preds = %invoke.cont1
  call void @_ZN6icu_7518CharStringByteSinkD1Ev(ptr noundef nonnull align 8 dereferenceable(16) %sink) #8
  %13 = load ptr, ptr %status.addr, align 8
  %14 = load i32, ptr %13, align 4
  %call5 = invoke noundef signext i8 @_ZL9U_SUCCESS10UErrorCode(i32 noundef %14)
          to label %invoke.cont4 unwind label %lpad

invoke.cont4:                                     ; preds = %invoke.cont3
  %tobool6 = icmp ne i8 %call5, 0
  br i1 %tobool6, label %land.lhs.true, label %if.end11

land.lhs.true:                                    ; preds = %invoke.cont4
  %call8 = invoke noundef signext i8 @_ZNK6icu_7510CharString7isEmptyEv(ptr noundef nonnull align 8 dereferenceable(60) %agg.result)
          to label %invoke.cont7 unwind label %lpad

invoke.cont7:                                     ; preds = %land.lhs.true
  %tobool9 = icmp ne i8 %call8, 0
  br i1 %tobool9, label %if.then10, label %if.end11

if.then10:                                        ; preds = %invoke.cont7
  %15 = load ptr, ptr %status.addr, align 8
  store i32 2, ptr %15, align 4
  br label %if.end11

lpad2:                                            ; preds = %invoke.cont1
  %16 = landingpad { ptr, i32 }
          cleanup
  %17 = extractvalue { ptr, i32 } %16, 0
  store ptr %17, ptr %exn.slot, align 8
  %18 = extractvalue { ptr, i32 } %16, 1
  store i32 %18, ptr %ehselector.slot, align 4
  call void @_ZN6icu_7518CharStringByteSinkD1Ev(ptr noundef nonnull align 8 dereferenceable(16) %sink) #8
  br label %ehcleanup

if.end11:                                         ; preds = %if.then10, %invoke.cont7, %invoke.cont4
  store i1 true, ptr %nrvo, align 1
  store i32 1, ptr %cleanup.dest.slot, align 4
  br label %cleanup

cleanup:                                          ; preds = %if.end11, %if.then
  %nrvo.val = load i1, ptr %nrvo, align 1
  br i1 %nrvo.val, label %nrvo.skipdtor, label %nrvo.unused

nrvo.unused:                                      ; preds = %cleanup
  call void @_ZN6icu_7510CharStringD2Ev(ptr noundef nonnull align 8 dereferenceable(60) %agg.result) #8
  br label %nrvo.skipdtor

nrvo.skipdtor:                                    ; preds = %nrvo.unused, %cleanup
  ret void

ehcleanup:                                        ; preds = %lpad2, %lpad
  call void @_ZN6icu_7510CharStringD2Ev(ptr noundef nonnull align 8 dereferenceable(60) %agg.result) #8
  br label %eh.resume

eh.resume:                                        ; preds = %ehcleanup
  %exn = load ptr, ptr %exn.slot, align 8
  %sel = load i32, ptr %ehselector.slot, align 4
  %lpad.val = insertvalue { ptr, i32 } poison, ptr %exn, 0
  %lpad.val12 = insertvalue { ptr, i32 } %lpad.val, i32 %sel, 1
  resume { ptr, i32 } %lpad.val12
}