; Function Attrs: mustprogress uwtable
define void @_ZN6icu_755units15getKeyWordValueERKNS_6LocaleENS_11StringPieceER10UErrorCode(ptr noalias sret(%"class.icu_75::CharString") align 8 %agg.result, ptr noundef nonnull align 8 dereferenceable(217) %locale, ptr %kw.coerce0, i32 %kw.coerce1, ptr noundef nonnull align 4 dereferenceable(4) %status) local_unnamed_addr #1 personality ptr @__gxx_personality_v0 {
entry:
  %sink = alloca %"class.icu_75::CharStringByteSink", align 8
  tail call void @_ZN6icu_7515MaybeStackArrayIcLi40EEC1Ev(ptr noundef nonnull align 8 dereferenceable(53) %agg.result)
  %len.i = getelementptr inbounds i8, ptr %agg.result, i64 56
  store i32 0, ptr %len.i, align 8
  %0 = load ptr, ptr %agg.result, align 8
  store i8 0, ptr %0, align 1
  %1 = load i32, ptr %status, align 4
  %cmp.i = icmp slt i32 %1, 1
  br i1 %cmp.i, label %if.end, label %nrvo.skipdtor

lpad:                                             ; preds = %if.end
  %2 = landingpad { ptr, i32 }
          cleanup
  br label %ehcleanup

if.end:                                           ; preds = %entry
  invoke void @_ZN6icu_7518CharStringByteSinkC1EPNS_10CharStringE(ptr noundef nonnull align 8 dereferenceable(16) %sink, ptr noundef nonnull %agg.result)
          to label %invoke.cont1 unwind label %lpad

invoke.cont1:                                     ; preds = %if.end
  invoke void @_ZNK6icu_756Locale15getKeywordValueENS_11StringPieceERNS_8ByteSinkER10UErrorCode(ptr noundef nonnull align 8 dereferenceable(217) %locale, ptr %kw.coerce0, i32 %kw.coerce1, ptr noundef nonnull align 8 dereferenceable(8) %sink, ptr noundef nonnull align 4 dereferenceable(4) %status)
          to label %invoke.cont3 unwind label %lpad2

invoke.cont3:                                     ; preds = %invoke.cont1
  call void @_ZN6icu_7518CharStringByteSinkD1Ev(ptr noundef nonnull align 8 dereferenceable(16) %sink) #15
  %3 = load i32, ptr %status, align 4
  %cmp.i5 = icmp slt i32 %3, 1
  %4 = load i32, ptr %len.i, align 8
  %cmp.i8.not = icmp eq i32 %4, 0
  %or.cond = select i1 %cmp.i5, i1 %cmp.i8.not, i1 false
  br i1 %or.cond, label %if.then10, label %nrvo.skipdtor

if.then10:                                        ; preds = %invoke.cont3
  store i32 2, ptr %status, align 4
  br label %nrvo.skipdtor

lpad2:                                            ; preds = %invoke.cont1
  %5 = landingpad { ptr, i32 }
          cleanup
  call void @_ZN6icu_7518CharStringByteSinkD1Ev(ptr noundef nonnull align 8 dereferenceable(16) %sink) #15
  br label %ehcleanup

nrvo.skipdtor:                                    ; preds = %entry, %if.then10, %invoke.cont3
  ret void

ehcleanup:                                        ; preds = %lpad2, %lpad
  %.pn = phi { ptr, i32 } [ %5, %lpad2 ], [ %2, %lpad ]
  call void @_ZN6icu_7515MaybeStackArrayIcLi40EED1Ev(ptr noundef nonnull align 8 dereferenceable(53) %agg.result) #15
  resume { ptr, i32 } %.pn
}